; ModuleID = '56/611.c'
source_filename = "56/611.c"
target datalayout = "e-m:e-p270:32:32-p271:32:32-p272:64:64-i64:64-f80:128-n8:16:32:64-S128"
target triple = "x86_64-pc-linux-gnu"

@.str = private unnamed_addr constant [11 x i8] c"%c%c%c%c%c\00", align 1
@.str.1 = private unnamed_addr constant [3 x i8] c"%c\00", align 1

; Function Attrs: noinline nounwind uwtable
define dso_local void @main() #0 {
  %1 = alloca [5 x i32], align 16
  %2 = alloca i32, align 4
  store i32 0, i32* %2, align 4
  br label %3

3:                                                ; preds = %10, %0
  %4 = load i32, i32* %2, align 4
  %5 = icmp sle i32 %4, 4
  br i1 %5, label %6, label %13

6:                                                ; preds = %3
  %7 = load i32, i32* %2, align 4
  %8 = sext i32 %7 to i64
  %9 = getelementptr inbounds [5 x i32], [5 x i32]* %1, i64 0, i64 %8
  store i32 48, i32* %9, align 4
  br label %10

10:                                               ; preds = %6
  %11 = load i32, i32* %2, align 4
  %12 = add nsw i32 %11, 1
  store i32 %12, i32* %2, align 4
  br label %3

13:                                               ; preds = %3
  %14 = getelementptr inbounds [5 x i32], [5 x i32]* %1, i64 0, i64 4
  %15 = getelementptr inbounds [5 x i32], [5 x i32]* %1, i64 0, i64 3
  %16 = getelementptr inbounds [5 x i32], [5 x i32]* %1, i64 0, i64 2
  %17 = getelementptr inbounds [5 x i32], [5 x i32]* %1, i64 0, i64 1
  %18 = getelementptr inbounds [5 x i32], [5 x i32]* %1, i64 0, i64 0
  %19 = call i32 (i8*, ...) @__isoc99_scanf(i8* getelementptr inbounds ([11 x i8], [11 x i8]* @.str, i64 0, i64 0), i32* %14, i32* %15, i32* %16, i32* %17, i32* %18)
  store i32 0, i32* %2, align 4
  br label %20

20:                                               ; preds = %42, %13
  %21 = load i32, i32* %2, align 4
  %22 = icmp sle i32 %21, 4
  br i1 %22, label %23, label %45

23:                                               ; preds = %20
  %24 = load i32, i32* %2, align 4
  %25 = sext i32 %24 to i64
  %26 = getelementptr inbounds [5 x i32], [5 x i32]* %1, i64 0, i64 %25
  %27 = load i32, i32* %26, align 4
  %28 = icmp sge i32 %27, 49
  br i1 %28, label %29, label %41

29:                                               ; preds = %23
  %30 = load i32, i32* %2, align 4
  %31 = sext i32 %30 to i64
  %32 = getelementptr inbounds [5 x i32], [5 x i32]* %1, i64 0, i64 %31
  %33 = load i32, i32* %32, align 4
  %34 = icmp sle i32 %33, 57
  br i1 %34, label %35, label %41

35:                                               ; preds = %29
  %36 = load i32, i32* %2, align 4
  %37 = sext i32 %36 to i64
  %38 = getelementptr inbounds [5 x i32], [5 x i32]* %1, i64 0, i64 %37
  %39 = load i32, i32* %38, align 4
  %40 = call i32 (i8*, ...) @printf(i8* getelementptr inbounds ([3 x i8], [3 x i8]* @.str.1, i64 0, i64 0), i32 %39)
  br label %41

41:                                               ; preds = %35, %29, %23
  br label %42

42:                                               ; preds = %41
  %43 = load i32, i32* %2, align 4
  %44 = add nsw i32 %43, 1
  store i32 %44, i32* %2, align 4
  br label %20

45:                                               ; preds = %20
  ret void
}

declare dso_local i32 @__isoc99_scanf(i8*, ...) #1

declare dso_local i32 @printf(i8*, ...) #1


!llvm.module.flags = !{!0}
!llvm.ident = !{!1}

!0 = !{i32 1, !"wchar_size", i32 4}
!1 = !{!"clang version 10.0.0-4ubuntu1 "}
